target datalayout = "e-m:e-p270:32:32-p271:32:32-p272:64:64-i64:64-i128:128-f80:128-n8:16:32:64-S128"
target triple = "x86_64-pc-linux-gnu"

%struct.SDL_Pen = type { i32, ptr, %struct.SDL_PenInfo, [7 x float], float, float, i32, ptr }
%struct.SDL_PenInfo = type { i32, float, i32, i32, i32 }

@pen_device_rwlock = internal global ptr null, align 8
@pen_device_count = internal global i32 0, align 4
@pen_devices = internal global ptr null, align 8

; Function Attrs: nounwind uwtable
define hidden i32 @SDL_FindPenByHandle(ptr noundef %0) #0 {
  %2 = alloca ptr, align 8
  %3 = alloca i32, align 4
  %4 = alloca i32, align 4
  %5 = alloca i32, align 4
  store ptr %0, ptr %2, align 8
  call void @llvm.lifetime.start.p0(i64 4, ptr %3) #6
  store i32 0, ptr %3, align 4
  %6 = load ptr, ptr @pen_device_rwlock, align 8
  call void @SDL_LockRWLockForReading_REAL(ptr noundef %6)
  call void @llvm.lifetime.start.p0(i64 4, ptr %4) #6
  store i32 0, ptr %4, align 4
  br label %7

7:                                                ; preds = %29, %1
  %8 = load i32, ptr %4, align 4
  %9 = load i32, ptr @pen_device_count, align 4
  %10 = icmp slt i32 %8, %9
  br i1 %10, label %12, label %11

11:                                               ; preds = %7
  store i32 2, ptr %5, align 4
  br label %32

12:                                               ; preds = %7
  %13 = load ptr, ptr @pen_devices, align 8
  %14 = load i32, ptr %4, align 4
  %15 = sext i32 %14 to i64
  %16 = getelementptr inbounds %struct.SDL_Pen, ptr %13, i64 %15
  %17 = getelementptr inbounds nuw %struct.SDL_Pen, ptr %16, i32 0, i32 7
  %18 = load ptr, ptr %17, align 8
  %19 = load ptr, ptr %2, align 8
  %20 = icmp eq ptr %18, %19
  br i1 %20, label %21, label %28

21:                                               ; preds = %12
  %22 = load ptr, ptr @pen_devices, align 8
  %23 = load i32, ptr %4, align 4
  %24 = sext i32 %23 to i64
  %25 = getelementptr inbounds %struct.SDL_Pen, ptr %22, i64 %24
  %26 = getelementptr inbounds nuw %struct.SDL_Pen, ptr %25, i32 0, i32 0
  %27 = load i32, ptr %26, align 8
  store i32 %27, ptr %3, align 4
  store i32 2, ptr %5, align 4
  br label %32

28:                                               ; preds = %12
  br label %29

29:                                               ; preds = %28
  %30 = load i32, ptr %4, align 4
  %31 = add nsw i32 %30, 1
  store i32 %31, ptr %4, align 4
  br label %7, !llvm.loop !3

32:                                               ; preds = %21, %11
  call void @llvm.lifetime.end.p0(i64 4, ptr %4) #6
  br label %33

33:                                               ; preds = %32
  %34 = load ptr, ptr @pen_device_rwlock, align 8
  call void @SDL_UnlockRWLock_REAL(ptr noundef %34)
  %35 = load i32, ptr %3, align 4
  store i32 1, ptr %5, align 4
  call void @llvm.lifetime.end.p0(i64 4, ptr %3) #6
  ret i32 %35
}