; Function Attrs: nounwind uwtable
define hidden i32 @SDL_FindPenByHandle(ptr noundef readnone captures(address) %0) local_unnamed_addr #0 {
  %2 = load ptr, ptr @pen_device_rwlock, align 8
  tail call void @SDL_LockRWLockForReading_REAL(ptr noundef %2) #8
  %3 = load i32, ptr @pen_device_count, align 4
  %4 = icmp sgt i32 %3, 0
  br i1 %4, label %.lr.ph, label %.loopexit

.lr.ph:                                           ; preds = %1
  %5 = load ptr, ptr @pen_devices, align 8
  %wide.trip.count = zext nneg i32 %3 to i64
  br label %7

6:                                                ; preds = %7
  %indvars.iv.next = add nuw nsw i64 %indvars.iv, 1
  %exitcond.not = icmp eq i64 %indvars.iv.next, %wide.trip.count
  br i1 %exitcond.not, label %.loopexit, label %7, !llvm.loop !3

7:                                                ; preds = %.lr.ph, %6
  %indvars.iv = phi i64 [ 0, %.lr.ph ], [ %indvars.iv.next, %6 ]
  %8 = getelementptr inbounds nuw %struct.SDL_Pen, ptr %5, i64 %indvars.iv
  %9 = getelementptr inbounds nuw i8, ptr %8, i64 80
  %10 = load ptr, ptr %9, align 8
  %11 = icmp eq ptr %10, %0
  br i1 %11, label %12, label %6

12:                                               ; preds = %7
  %13 = load i32, ptr %8, align 8
  br label %.loopexit

.loopexit:                                        ; preds = %6, %1, %12
  %.05 = phi i32 [ %13, %12 ], [ 0, %1 ], [ 0, %6 ]
  %14 = load ptr, ptr @pen_device_rwlock, align 8
  tail call void @SDL_UnlockRWLock_REAL(ptr noundef %14) #8
  ret i32 %.05
}